target datalayout = "e-m:e-p270:32:32-p271:32:32-p272:64:64-i64:64-i128:128-f80:128-n8:16:32:64-S128"
target triple = "x86_64-unknown-linux-gnu"

%"class.dd::solver" = type { ptr, ptr, ptr, %"class.dd::solver::stats", %"struct.dd::solver::config", %"class.std::function", %class.ptr_vector, %class.ptr_vector, %class.ptr_vector, %class.vector.0, %class.ptr_vector, ptr, i8, i32, %class.svector, %class.svector }
%"class.dd::solver::stats" = type <{ i32, [4 x i8], double, i32, i32, i32, [4 x i8] }>
%"struct.dd::solver::config" = type { i32, i32, i32, i32, i32, i32, i8, i32, i32, i32, i32 }
%"class.std::function" = type { %"class.std::_Function_base", ptr }
%"class.std::_Function_base" = type { %"union.std::_Any_data", ptr }
%"union.std::_Any_data" = type { %"union.std::_Nocopy_types" }
%"union.std::_Nocopy_types" = type { { i64, i64 } }
%class.vector.0 = type { ptr }
%class.ptr_vector = type { %class.vector }
%class.vector = type { ptr }
%class.svector = type { %class.vector.1 }
%class.vector.1 = type { ptr }
%class.reslimit = type { %"struct.std::atomic", i8, i64, i64, %class.svector.15, %class.ptr_vector.17 }
%"struct.std::atomic" = type { %"struct.std::__atomic_base" }
%"struct.std::__atomic_base" = type { i32 }
%class.svector.15 = type { %class.vector.16 }
%class.vector.16 = type { ptr }
%class.ptr_vector.17 = type { %class.vector.18 }
%class.vector.18 = type { ptr }

; Function Attrs: noreturn nounwind uwtable
define linkonce_odr hidden void @__clang_call_terminate(ptr noundef %0) #6 comdat {
  %2 = call ptr @__cxa_begin_catch(ptr %0) #3
  call void @_ZSt9terminatev() #17
  unreachable
}

; Function Attrs: mustprogress nounwind uwtable
define linkonce_odr noundef i32 @_ZStanSt12memory_orderSt23__memory_order_modifier(i32 noundef %__m, i32 noundef %__mod) #5 comdat {
entry:
  %__m.addr = alloca i32, align 4
  %__mod.addr = alloca i32, align 4
  store i32 %__m, ptr %__m.addr, align 4
  store i32 %__mod, ptr %__mod.addr, align 4
  %0 = load i32, ptr %__m.addr, align 4
  %1 = load i32, ptr %__mod.addr, align 4
  %and = and i32 %0, %1
  ret i32 %and
}

; Function Attrs: mustprogress nounwind uwtable
define linkonce_odr hidden noundef i32 @_ZNKSt13__atomic_baseIjEcvjEv(ptr noundef nonnull align 4 dereferenceable(4) %this) #5 comdat align 2 personality ptr @__gxx_personality_v0 {
entry:
  %this.addr.i = alloca ptr, align 8
  %__m.addr.i = alloca i32, align 4
  %__b.i = alloca i32, align 4
  %atomic-temp.i = alloca i32, align 4
  %this.addr = alloca ptr, align 8
  store ptr %this, ptr %this.addr, align 8
  %this1 = load ptr, ptr %this.addr, align 8
  store ptr %this1, ptr %this.addr.i, align 8
  store i32 5, ptr %__m.addr.i, align 4
  %this1.i = load ptr, ptr %this.addr.i, align 8
  %0 = load i32, ptr %__m.addr.i, align 4
  %call.i = invoke noundef i32 @_ZStanSt12memory_orderSt23__memory_order_modifier(i32 noundef %0, i32 noundef 65535)
          to label %invoke.cont.i unwind label %terminate.lpad.i

invoke.cont.i:                                    ; preds = %entry
  store i32 %call.i, ptr %__b.i, align 4
  %1 = load i32, ptr %__m.addr.i, align 4
  switch i32 %1, label %monotonic.i [
    i32 1, label %acquire.i
    i32 2, label %acquire.i
    i32 5, label %seqcst.i
  ]

monotonic.i:                                      ; preds = %invoke.cont.i
  %2 = load atomic i32, ptr %this1.i monotonic, align 4
  store i32 %2, ptr %atomic-temp.i, align 4
  br label %_ZNKSt13__atomic_baseIjE4loadESt12memory_order.exit

acquire.i:                                        ; preds = %invoke.cont.i, %invoke.cont.i
  %3 = load atomic i32, ptr %this1.i acquire, align 4
  store i32 %3, ptr %atomic-temp.i, align 4
  br label %_ZNKSt13__atomic_baseIjE4loadESt12memory_order.exit

seqcst.i:                                         ; preds = %invoke.cont.i
  %4 = load atomic i32, ptr %this1.i seq_cst, align 4
  store i32 %4, ptr %atomic-temp.i, align 4
  br label %_ZNKSt13__atomic_baseIjE4loadESt12memory_order.exit

terminate.lpad.i:                                 ; preds = %entry
  %5 = landingpad { ptr, i32 }
          catch ptr null
  %6 = extractvalue { ptr, i32 } %5, 0
  call void @__clang_call_terminate(ptr %6) #17
  unreachable

_ZNKSt13__atomic_baseIjE4loadESt12memory_order.exit: ; preds = %seqcst.i, %acquire.i, %monotonic.i
  %7 = load i32, ptr %atomic-temp.i, align 4
  ret i32 %7
}

; Function Attrs: mustprogress nounwind uwtable
define linkonce_odr hidden noundef zeroext i1 @_ZNK8reslimit12not_canceledEv(ptr noundef nonnull align 8 dereferenceable(40) %this) #5 comdat align 2 {
entry:
  %this.addr = alloca ptr, align 8
  store ptr %this, ptr %this.addr, align 8
  %this1 = load ptr, ptr %this.addr, align 8
  %m_cancel = getelementptr inbounds %class.reslimit, ptr %this1, i32 0, i32 0
  %call = call noundef i32 @_ZNKSt13__atomic_baseIjEcvjEv(ptr noundef nonnull align 4 dereferenceable(4) %m_cancel) #3
  %cmp = icmp eq i32 %call, 0
  br i1 %cmp, label %land.lhs.true, label %lor.rhs

land.lhs.true:                                    ; preds = %entry
  %m_count = getelementptr inbounds %class.reslimit, ptr %this1, i32 0, i32 2
  %0 = load i64, ptr %m_count, align 8
  %m_limit = getelementptr inbounds %class.reslimit, ptr %this1, i32 0, i32 3
  %1 = load i64, ptr %m_limit, align 8
  %cmp2 = icmp ule i64 %0, %1
  br i1 %cmp2, label %lor.end, label %lor.rhs

lor.rhs:                                          ; preds = %land.lhs.true, %entry
  %m_suspend = getelementptr inbounds %class.reslimit, ptr %this1, i32 0, i32 1
  %2 = load i8, ptr %m_suspend, align 4
  %tobool = trunc i8 %2 to i1
  br label %lor.end

lor.end:                                          ; preds = %lor.rhs, %land.lhs.true
  %3 = phi i1 [ true, %land.lhs.true ], [ %tobool, %lor.rhs ]
  ret i1 %3
}

; Function Attrs: mustprogress uwtable
define linkonce_odr hidden noundef zeroext i1 @_ZNK8reslimit11is_canceledEv(ptr noundef nonnull align 8 dereferenceable(40) %this) #4 comdat align 2 {
entry:
  %this.addr = alloca ptr, align 8
  store ptr %this, ptr %this.addr, align 8
  %this1 = load ptr, ptr %this.addr, align 8
  %call = call noundef zeroext i1 @_ZNK8reslimit12not_canceledEv(ptr noundef nonnull align 8 dereferenceable(40) %this1)
  %lnot = xor i1 %call, true
  ret i1 %lnot
}

; Function Attrs: mustprogress uwtable
define hidden noundef zeroext i1 @_ZN2dd6solver8canceledEv(ptr noundef nonnull align 8 dereferenceable(208) %this) #4 align 2 {
entry:
  %this.addr = alloca ptr, align 8
  store ptr %this, ptr %this.addr, align 8
  %this1 = load ptr, ptr %this.addr, align 8
  %m_limit = getelementptr inbounds %"class.dd::solver", ptr %this1, i32 0, i32 1
  %0 = load ptr, ptr %m_limit, align 8
  %call = call noundef zeroext i1 @_ZNK8reslimit11is_canceledEv(ptr noundef nonnull align 8 dereferenceable(40) %0)
  ret i1 %call
}

; Function Attrs: mustprogress nounwind uwtable
define linkonce_odr hidden noundef i32 @_ZNK2dd6solver5stats10simplifiedEv(ptr noundef nonnull align 8 dereferenceable(28) %this) #5 comdat align 2 {
entry:
  %this.addr = alloca ptr, align 8
  store ptr %this, ptr %this.addr, align 8
  %this1 = load ptr, ptr %this.addr, align 8
  %m_simplified = getelementptr inbounds %"class.dd::solver::stats", ptr %this1, i32 0, i32 0
  %0 = load i32, ptr %m_simplified, align 8
  ret i32 %0
}

; Function Attrs: mustprogress nounwind uwtable
define linkonce_odr hidden noundef i32 @_ZNK6vectorIPN2dd6solver8equationELb0EjE4sizeEv(ptr noundef nonnull align 8 dereferenceable(8) %this) #5 comdat align 2 {
entry:
  %retval = alloca i32, align 4
  %this.addr = alloca ptr, align 8
  store ptr %this, ptr %this.addr, align 8
  %this1 = load ptr, ptr %this.addr, align 8
  %m_data = getelementptr inbounds %class.vector, ptr %this1, i32 0, i32 0
  %0 = load ptr, ptr %m_data, align 8
  %cmp = icmp eq ptr %0, null
  br i1 %cmp, label %if.then, label %if.end

if.then:                                          ; preds = %entry
  store i32 0, ptr %retval, align 4
  br label %return

if.end:                                           ; preds = %entry
  %m_data2 = getelementptr inbounds %class.vector, ptr %this1, i32 0, i32 0
  %1 = load ptr, ptr %m_data2, align 8
  %arrayidx = getelementptr inbounds i32, ptr %1, i64 -1
  %2 = load i32, ptr %arrayidx, align 4
  store i32 %2, ptr %retval, align 4
  br label %return

return:                                           ; preds = %if.end, %if.then
  %3 = load i32, ptr %retval, align 4
  ret i32 %3
}

; Function Attrs: mustprogress uwtable
define hidden noundef zeroext i1 @_ZN2dd6solver4doneEv(ptr noundef nonnull align 8 dereferenceable(208) %this) #4 align 2 {
entry:
  %this.addr = alloca ptr, align 8
  store ptr %this, ptr %this.addr, align 8
  %this1 = load ptr, ptr %this.addr, align 8
  %m_to_simplify = getelementptr inbounds %"class.dd::solver", ptr %this1, i32 0, i32 8
  %call = call noundef i32 @_ZNK6vectorIPN2dd6solver8equationELb0EjE4sizeEv(ptr noundef nonnull align 8 dereferenceable(8) %m_to_simplify)
  %m_processed = getelementptr inbounds %"class.dd::solver", ptr %this1, i32 0, i32 7
  %call2 = call noundef i32 @_ZNK6vectorIPN2dd6solver8equationELb0EjE4sizeEv(ptr noundef nonnull align 8 dereferenceable(8) %m_processed)
  %add = add i32 %call, %call2
  %m_config = getelementptr inbounds %"class.dd::solver", ptr %this1, i32 0, i32 4
  %m_eqs_threshold = getelementptr inbounds %"struct.dd::solver::config", ptr %m_config, i32 0, i32 0
  %0 = load i32, ptr %m_eqs_threshold, align 8
  %cmp = icmp uge i32 %add, %0
  br i1 %cmp, label %lor.end, label %lor.lhs.false

lor.lhs.false:                                    ; preds = %entry
  %m_stats = getelementptr inbounds %"class.dd::solver", ptr %this1, i32 0, i32 3
  %call3 = call noundef i32 @_ZNK2dd6solver5stats10simplifiedEv(ptr noundef nonnull align 8 dereferenceable(28) %m_stats)
  %m_config4 = getelementptr inbounds %"class.dd::solver", ptr %this1, i32 0, i32 4
  %m_max_simplified = getelementptr inbounds %"struct.dd::solver::config", ptr %m_config4, i32 0, i32 4
  %1 = load i32, ptr %m_max_simplified, align 8
  %cmp5 = icmp uge i32 %call3, %1
  br i1 %cmp5, label %lor.end, label %lor.lhs.false6

lor.lhs.false6:                                   ; preds = %lor.lhs.false
  %call7 = call noundef zeroext i1 @_ZN2dd6solver8canceledEv(ptr noundef nonnull align 8 dereferenceable(208) %this1)
  br i1 %call7, label %lor.end, label %lor.lhs.false8

lor.lhs.false8:                                   ; preds = %lor.lhs.false6
  %m_stats9 = getelementptr inbounds %"class.dd::solver", ptr %this1, i32 0, i32 3
  %m_compute_steps = getelementptr inbounds %"class.dd::solver::stats", ptr %m_stats9, i32 0, i32 5
  %2 = load i32, ptr %m_compute_steps, align 8
  %m_config10 = getelementptr inbounds %"class.dd::solver", ptr %this1, i32 0, i32 4
  %m_max_steps = getelementptr inbounds %"struct.dd::solver::config", ptr %m_config10, i32 0, i32 3
  %3 = load i32, ptr %m_max_steps, align 4
  %cmp11 = icmp ugt i32 %2, %3
  br i1 %cmp11, label %lor.end, label %lor.rhs

lor.rhs:                                          ; preds = %lor.lhs.false8
  %m_conflict = getelementptr inbounds %"class.dd::solver", ptr %this1, i32 0, i32 11
  %4 = load ptr, ptr %m_conflict, align 8
  %cmp12 = icmp ne ptr %4, null
  br label %lor.end

lor.end:                                          ; preds = %lor.rhs, %lor.lhs.false8, %lor.lhs.false6, %lor.lhs.false, %entry
  %5 = phi i1 [ true, %lor.lhs.false8 ], [ true, %lor.lhs.false6 ], [ true, %lor.lhs.false ], [ true, %entry ], [ %cmp12, %lor.rhs ]
  ret i1 %5
}