; Function Attrs: mustprogress nofree norecurse nounwind willreturn memory(readwrite, inaccessiblemem: none) uwtable
define hidden noundef zeroext i1 @_ZN2dd6solver4doneEv(ptr nocapture noundef nonnull readonly align 8 dereferenceable(208) %this) local_unnamed_addr #8 align 2 personality ptr @__gxx_personality_v0 {
entry:
  %m_to_simplify = getelementptr inbounds i8, ptr %this, i64 152
  %0 = load ptr, ptr %m_to_simplify, align 8
  %cmp.i = icmp eq ptr %0, null
  br i1 %cmp.i, label %_ZNK6vectorIPN2dd6solver8equationELb0EjE4sizeEv.exit, label %if.end.i

if.end.i:                                         ; preds = %entry
  %arrayidx.i = getelementptr inbounds i8, ptr %0, i64 -4
  %1 = load i32, ptr %arrayidx.i, align 4
  br label %_ZNK6vectorIPN2dd6solver8equationELb0EjE4sizeEv.exit

_ZNK6vectorIPN2dd6solver8equationELb0EjE4sizeEv.exit: ; preds = %entry, %if.end.i
  %retval.0.i = phi i32 [ %1, %if.end.i ], [ 0, %entry ]
  %m_processed = getelementptr inbounds i8, ptr %this, i64 144
  %2 = load ptr, ptr %m_processed, align 8
  %cmp.i1 = icmp eq ptr %2, null
  br i1 %cmp.i1, label %_ZNK6vectorIPN2dd6solver8equationELb0EjE4sizeEv.exit5, label %if.end.i2

if.end.i2:                                        ; preds = %_ZNK6vectorIPN2dd6solver8equationELb0EjE4sizeEv.exit
  %arrayidx.i3 = getelementptr inbounds i8, ptr %2, i64 -4
  %3 = load i32, ptr %arrayidx.i3, align 4
  br label %_ZNK6vectorIPN2dd6solver8equationELb0EjE4sizeEv.exit5

_ZNK6vectorIPN2dd6solver8equationELb0EjE4sizeEv.exit5: ; preds = %_ZNK6vectorIPN2dd6solver8equationELb0EjE4sizeEv.exit, %if.end.i2
  %retval.0.i4 = phi i32 [ %3, %if.end.i2 ], [ 0, %_ZNK6vectorIPN2dd6solver8equationELb0EjE4sizeEv.exit ]
  %add = add i32 %retval.0.i4, %retval.0.i
  %m_config = getelementptr inbounds i8, ptr %this, i64 56
  %4 = load i32, ptr %m_config, align 8
  %cmp.not = icmp ult i32 %add, %4
  br i1 %cmp.not, label %lor.lhs.false, label %lor.end

lor.lhs.false:                                    ; preds = %_ZNK6vectorIPN2dd6solver8equationELb0EjE4sizeEv.exit5
  %m_stats = getelementptr inbounds i8, ptr %this, i64 24
  %5 = load i32, ptr %m_stats, align 8
  %m_max_simplified = getelementptr inbounds i8, ptr %this, i64 72
  %6 = load i32, ptr %m_max_simplified, align 8
  %cmp5.not = icmp ult i32 %5, %6
  br i1 %cmp5.not, label %lor.lhs.false6, label %lor.end

lor.lhs.false6:                                   ; preds = %lor.lhs.false
  %m_limit.i = getelementptr inbounds i8, ptr %this, i64 8
  %7 = load ptr, ptr %m_limit.i, align 8
  %8 = load atomic i32, ptr %7 seq_cst, align 4
  %cmp.i.i.i = icmp eq i32 %8, 0
  br i1 %cmp.i.i.i, label %land.lhs.true.i.i.i, label %_ZN2dd6solver8canceledEv.exit

land.lhs.true.i.i.i:                              ; preds = %lor.lhs.false6
  %m_count.i.i.i = getelementptr inbounds i8, ptr %7, i64 8
  %9 = load i64, ptr %m_count.i.i.i, align 8
  %m_limit.i.i.i = getelementptr inbounds i8, ptr %7, i64 16
  %10 = load i64, ptr %m_limit.i.i.i, align 8
  %cmp2.not.i.i.i = icmp ugt i64 %9, %10
  br i1 %cmp2.not.i.i.i, label %_ZN2dd6solver8canceledEv.exit, label %lor.lhs.false8

_ZN2dd6solver8canceledEv.exit:                    ; preds = %lor.lhs.false6, %land.lhs.true.i.i.i
  %m_suspend.i.i.i = getelementptr inbounds i8, ptr %7, i64 4
  %11 = load i8, ptr %m_suspend.i.i.i, align 4
  %12 = and i8 %11, 1
  %tobool.i.i.i = icmp eq i8 %12, 0
  br i1 %tobool.i.i.i, label %lor.end, label %lor.lhs.false8

lor.lhs.false8:                                   ; preds = %land.lhs.true.i.i.i, %_ZN2dd6solver8canceledEv.exit
  %m_compute_steps = getelementptr inbounds i8, ptr %this, i64 48
  %13 = load i32, ptr %m_compute_steps, align 8
  %m_max_steps = getelementptr inbounds i8, ptr %this, i64 68
  %14 = load i32, ptr %m_max_steps, align 4
  %cmp11 = icmp ugt i32 %13, %14
  br i1 %cmp11, label %lor.end, label %lor.rhs

lor.rhs:                                          ; preds = %lor.lhs.false8
  %m_conflict = getelementptr inbounds i8, ptr %this, i64 176
  %15 = load ptr, ptr %m_conflict, align 8
  %cmp12 = icmp ne ptr %15, null
  br label %lor.end

lor.end:                                          ; preds = %lor.rhs, %lor.lhs.false8, %_ZN2dd6solver8canceledEv.exit, %lor.lhs.false, %_ZNK6vectorIPN2dd6solver8equationELb0EjE4sizeEv.exit5
  %16 = phi i1 [ true, %lor.lhs.false8 ], [ true, %_ZN2dd6solver8canceledEv.exit ], [ true, %lor.lhs.false ], [ true, %_ZNK6vectorIPN2dd6solver8equationELb0EjE4sizeEv.exit5 ], [ %cmp12, %lor.rhs ]
  ret i1 %16
}